; Function Attrs: mustprogress uwtable
define hidden noundef nonnull align 8 dereferenceable(8) ptr @_ZN2dd6solver9equationsEv(ptr noundef nonnull align 8 dereferenceable(208) %this) local_unnamed_addr #5 align 2 {
entry:
  %m_all_eqs = getelementptr inbounds i8, ptr %this, i64 168
  %0 = load ptr, ptr %m_all_eqs, align 8
  %tobool.not.i = icmp eq ptr %0, null
  br i1 %tobool.not.i, label %_ZN6vectorIPN2dd6solver8equationELb0EjE5resetEv.exit, label %if.then.i

if.then.i:                                        ; preds = %entry
  %arrayidx.i = getelementptr inbounds i8, ptr %0, i64 -4
  store i32 0, ptr %arrayidx.i, align 4
  br label %_ZN6vectorIPN2dd6solver8equationELb0EjE5resetEv.exit

_ZN6vectorIPN2dd6solver8equationELb0EjE5resetEv.exit: ; preds = %entry, %if.then.i
  %m_solved = getelementptr inbounds i8, ptr %this, i64 136
  %1 = load ptr, ptr %m_solved, align 8
  %cmp.i.i = icmp eq ptr %1, null
  br i1 %cmp.i.i, label %for.end, label %_ZN6vectorIPN2dd6solver8equationELb0EjE3endEv.exit

_ZN6vectorIPN2dd6solver8equationELb0EjE3endEv.exit: ; preds = %_ZN6vectorIPN2dd6solver8equationELb0EjE5resetEv.exit
  %arrayidx.i.i = getelementptr inbounds i8, ptr %1, i64 -4
  %2 = load i32, ptr %arrayidx.i.i, align 4
  %3 = zext i32 %2 to i64
  %add.ptr.i = getelementptr inbounds ptr, ptr %1, i64 %3
  %cmp.not53 = icmp eq i32 %2, 0
  br i1 %cmp.not53, label %for.end, label %for.body

for.body:                                         ; preds = %_ZN6vectorIPN2dd6solver8equationELb0EjE3endEv.exit, %_ZN6vectorIPN2dd6solver8equationELb0EjE9push_backERKS3_.exit
  %__begin1.054 = phi ptr [ %incdec.ptr, %_ZN6vectorIPN2dd6solver8equationELb0EjE9push_backERKS3_.exit ], [ %1, %_ZN6vectorIPN2dd6solver8equationELb0EjE3endEv.exit ]
  %4 = load ptr, ptr %__begin1.054, align 8
  %5 = load ptr, ptr %m_all_eqs, align 8
  %cmp.i = icmp eq ptr %5, null
  br i1 %cmp.i, label %if.then.i12, label %lor.lhs.false.i

lor.lhs.false.i:                                  ; preds = %for.body
  %arrayidx.i10 = getelementptr inbounds i8, ptr %5, i64 -4
  %6 = load i32, ptr %arrayidx.i10, align 4
  %arrayidx4.i = getelementptr inbounds i8, ptr %5, i64 -8
  %7 = load i32, ptr %arrayidx4.i, align 4
  %cmp5.i = icmp eq i32 %6, %7
  br i1 %cmp5.i, label %if.then.i12, label %_ZN6vectorIPN2dd6solver8equationELb0EjE9push_backERKS3_.exit

if.then.i12:                                      ; preds = %lor.lhs.false.i, %for.body
  tail call void @_ZN6vectorIPN2dd6solver8equationELb0EjE13expand_vectorEv(ptr noundef nonnull align 8 dereferenceable(8) %m_all_eqs)
  %.pre.i = load ptr, ptr %m_all_eqs, align 8
  %arrayidx8.phi.trans.insert.i = getelementptr inbounds i8, ptr %.pre.i, i64 -4
  %.pre1.i = load i32, ptr %arrayidx8.phi.trans.insert.i, align 4
  br label %_ZN6vectorIPN2dd6solver8equationELb0EjE9push_backERKS3_.exit

_ZN6vectorIPN2dd6solver8equationELb0EjE9push_backERKS3_.exit: ; preds = %lor.lhs.false.i, %if.then.i12
  %8 = phi i32 [ %.pre1.i, %if.then.i12 ], [ %6, %lor.lhs.false.i ]
  %9 = phi ptr [ %.pre.i, %if.then.i12 ], [ %5, %lor.lhs.false.i ]
  %idx.ext.i = zext i32 %8 to i64
  %add.ptr.i11 = getelementptr inbounds ptr, ptr %9, i64 %idx.ext.i
  store ptr %4, ptr %add.ptr.i11, align 8
  %10 = load ptr, ptr %m_all_eqs, align 8
  %arrayidx10.i = getelementptr inbounds i8, ptr %10, i64 -4
  %11 = load i32, ptr %arrayidx10.i, align 4
  %inc.i = add i32 %11, 1
  store i32 %inc.i, ptr %arrayidx10.i, align 4
  %incdec.ptr = getelementptr inbounds i8, ptr %__begin1.054, i64 8
  %cmp.not = icmp eq ptr %incdec.ptr, %add.ptr.i
  br i1 %cmp.not, label %for.end, label %for.body

for.end:                                          ; preds = %_ZN6vectorIPN2dd6solver8equationELb0EjE9push_backERKS3_.exit, %_ZN6vectorIPN2dd6solver8equationELb0EjE5resetEv.exit, %_ZN6vectorIPN2dd6solver8equationELb0EjE3endEv.exit
  %m_to_simplify = getelementptr inbounds i8, ptr %this, i64 152
  %12 = load ptr, ptr %m_to_simplify, align 8
  %cmp.i.i13 = icmp eq ptr %12, null
  br i1 %cmp.i.i13, label %for.end18, label %_ZN6vectorIPN2dd6solver8equationELb0EjE3endEv.exit18

_ZN6vectorIPN2dd6solver8equationELb0EjE3endEv.exit18: ; preds = %for.end
  %arrayidx.i.i15 = getelementptr inbounds i8, ptr %12, i64 -4
  %13 = load i32, ptr %arrayidx.i.i15, align 4
  %14 = zext i32 %13 to i64
  %add.ptr.i17 = getelementptr inbounds ptr, ptr %12, i64 %14
  %cmp11.not55 = icmp eq i32 %13, 0
  br i1 %cmp11.not55, label %for.end18, label %for.body12

for.body12:                                       ; preds = %_ZN6vectorIPN2dd6solver8equationELb0EjE3endEv.exit18, %_ZN6vectorIPN2dd6solver8equationELb0EjE9push_backERKS3_.exit32
  %__begin16.056 = phi ptr [ %incdec.ptr17, %_ZN6vectorIPN2dd6solver8equationELb0EjE9push_backERKS3_.exit32 ], [ %12, %_ZN6vectorIPN2dd6solver8equationELb0EjE3endEv.exit18 ]
  %15 = load ptr, ptr %__begin16.056, align 8
  %16 = load ptr, ptr %m_all_eqs, align 8
  %cmp.i19 = icmp eq ptr %16, null
  br i1 %cmp.i19, label %if.then.i28, label %lor.lhs.false.i20

lor.lhs.false.i20:                                ; preds = %for.body12
  %arrayidx.i21 = getelementptr inbounds i8, ptr %16, i64 -4
  %17 = load i32, ptr %arrayidx.i21, align 4
  %arrayidx4.i22 = getelementptr inbounds i8, ptr %16, i64 -8
  %18 = load i32, ptr %arrayidx4.i22, align 4
  %cmp5.i23 = icmp eq i32 %17, %18
  br i1 %cmp5.i23, label %if.then.i28, label %_ZN6vectorIPN2dd6solver8equationELb0EjE9push_backERKS3_.exit32

if.then.i28:                                      ; preds = %lor.lhs.false.i20, %for.body12
  tail call void @_ZN6vectorIPN2dd6solver8equationELb0EjE13expand_vectorEv(ptr noundef nonnull align 8 dereferenceable(8) %m_all_eqs)
  %.pre.i29 = load ptr, ptr %m_all_eqs, align 8
  %arrayidx8.phi.trans.insert.i30 = getelementptr inbounds i8, ptr %.pre.i29, i64 -4
  %.pre1.i31 = load i32, ptr %arrayidx8.phi.trans.insert.i30, align 4
  br label %_ZN6vectorIPN2dd6solver8equationELb0EjE9push_backERKS3_.exit32

_ZN6vectorIPN2dd6solver8equationELb0EjE9push_backERKS3_.exit32: ; preds = %lor.lhs.false.i20, %if.then.i28
  %19 = phi i32 [ %.pre1.i31, %if.then.i28 ], [ %17, %lor.lhs.false.i20 ]
  %20 = phi ptr [ %.pre.i29, %if.then.i28 ], [ %16, %lor.lhs.false.i20 ]
  %idx.ext.i24 = zext i32 %19 to i64
  %add.ptr.i25 = getelementptr inbounds ptr, ptr %20, i64 %idx.ext.i24
  store ptr %15, ptr %add.ptr.i25, align 8
  %21 = load ptr, ptr %m_all_eqs, align 8
  %arrayidx10.i26 = getelementptr inbounds i8, ptr %21, i64 -4
  %22 = load i32, ptr %arrayidx10.i26, align 4
  %inc.i27 = add i32 %22, 1
  store i32 %inc.i27, ptr %arrayidx10.i26, align 4
  %incdec.ptr17 = getelementptr inbounds i8, ptr %__begin16.056, i64 8
  %cmp11.not = icmp eq ptr %incdec.ptr17, %add.ptr.i17
  br i1 %cmp11.not, label %for.end18, label %for.body12

for.end18:                                        ; preds = %_ZN6vectorIPN2dd6solver8equationELb0EjE9push_backERKS3_.exit32, %for.end, %_ZN6vectorIPN2dd6solver8equationELb0EjE3endEv.exit18
  %m_processed = getelementptr inbounds i8, ptr %this, i64 144
  %23 = load ptr, ptr %m_processed, align 8
  %cmp.i.i33 = icmp eq ptr %23, null
  br i1 %cmp.i.i33, label %for.end32, label %_ZN6vectorIPN2dd6solver8equationELb0EjE3endEv.exit38

_ZN6vectorIPN2dd6solver8equationELb0EjE3endEv.exit38: ; preds = %for.end18
  %arrayidx.i.i35 = getelementptr inbounds i8, ptr %23, i64 -4
  %24 = load i32, ptr %arrayidx.i.i35, align 4
  %25 = zext i32 %24 to i64
  %add.ptr.i37 = getelementptr inbounds ptr, ptr %23, i64 %25
  %cmp25.not57 = icmp eq i32 %24, 0
  br i1 %cmp25.not57, label %for.end32, label %for.body26

for.body26:                                       ; preds = %_ZN6vectorIPN2dd6solver8equationELb0EjE3endEv.exit38, %_ZN6vectorIPN2dd6solver8equationELb0EjE9push_backERKS3_.exit52
  %__begin120.058 = phi ptr [ %incdec.ptr31, %_ZN6vectorIPN2dd6solver8equationELb0EjE9push_backERKS3_.exit52 ], [ %23, %_ZN6vectorIPN2dd6solver8equationELb0EjE3endEv.exit38 ]
  %26 = load ptr, ptr %__begin120.058, align 8
  %27 = load ptr, ptr %m_all_eqs, align 8
  %cmp.i39 = icmp eq ptr %27, null
  br i1 %cmp.i39, label %if.then.i48, label %lor.lhs.false.i40

lor.lhs.false.i40:                                ; preds = %for.body26
  %arrayidx.i41 = getelementptr inbounds i8, ptr %27, i64 -4
  %28 = load i32, ptr %arrayidx.i41, align 4
  %arrayidx4.i42 = getelementptr inbounds i8, ptr %27, i64 -8
  %29 = load i32, ptr %arrayidx4.i42, align 4
  %cmp5.i43 = icmp eq i32 %28, %29
  br i1 %cmp5.i43, label %if.then.i48, label %_ZN6vectorIPN2dd6solver8equationELb0EjE9push_backERKS3_.exit52

if.then.i48:                                      ; preds = %lor.lhs.false.i40, %for.body26
  tail call void @_ZN6vectorIPN2dd6solver8equationELb0EjE13expand_vectorEv(ptr noundef nonnull align 8 dereferenceable(8) %m_all_eqs)
  %.pre.i49 = load ptr, ptr %m_all_eqs, align 8
  %arrayidx8.phi.trans.insert.i50 = getelementptr inbounds i8, ptr %.pre.i49, i64 -4
  %.pre1.i51 = load i32, ptr %arrayidx8.phi.trans.insert.i50, align 4
  br label %_ZN6vectorIPN2dd6solver8equationELb0EjE9push_backERKS3_.exit52

_ZN6vectorIPN2dd6solver8equationELb0EjE9push_backERKS3_.exit52: ; preds = %lor.lhs.false.i40, %if.then.i48
  %30 = phi i32 [ %.pre1.i51, %if.then.i48 ], [ %28, %lor.lhs.false.i40 ]
  %31 = phi ptr [ %.pre.i49, %if.then.i48 ], [ %27, %lor.lhs.false.i40 ]
  %idx.ext.i44 = zext i32 %30 to i64
  %add.ptr.i45 = getelementptr inbounds ptr, ptr %31, i64 %idx.ext.i44
  store ptr %26, ptr %add.ptr.i45, align 8
  %32 = load ptr, ptr %m_all_eqs, align 8
  %arrayidx10.i46 = getelementptr inbounds i8, ptr %32, i64 -4
  %33 = load i32, ptr %arrayidx10.i46, align 4
  %inc.i47 = add i32 %33, 1
  store i32 %inc.i47, ptr %arrayidx10.i46, align 4
  %incdec.ptr31 = getelementptr inbounds i8, ptr %__begin120.058, i64 8
  %cmp25.not = icmp eq ptr %incdec.ptr31, %add.ptr.i37
  br i1 %cmp25.not, label %for.end32, label %for.body26

for.end32:                                        ; preds = %_ZN6vectorIPN2dd6solver8equationELb0EjE9push_backERKS3_.exit52, %for.end18, %_ZN6vectorIPN2dd6solver8equationELb0EjE3endEv.exit38
  ret ptr %m_all_eqs
}